; Function Attrs: mustprogress nofree norecurse nosync nounwind willreturn memory(read, argmem: readwrite, inaccessiblemem: none) uwtable
define hidden noundef zeroext i1 @X11_GetWindowBordersSize(ptr noundef readnone captures(none) %0, ptr noundef readonly captures(none) %1, ptr noundef writeonly captures(none) initializes((0, 4)) %2, ptr noundef writeonly captures(none) initializes((0, 4)) %3, ptr noundef writeonly captures(none) initializes((0, 4)) %4, ptr noundef writeonly captures(none) initializes((0, 4)) %5) local_unnamed_addr #5 {
  %7 = getelementptr inbounds nuw i8, ptr %1, i64 392
  %8 = load ptr, ptr %7, align 8
  %9 = getelementptr inbounds nuw i8, ptr %8, i64 100
  %10 = load i32, ptr %9, align 4
  store i32 %10, ptr %3, align 4
  %11 = getelementptr inbounds nuw i8, ptr %8, i64 104
  %12 = load i32, ptr %11, align 8
  store i32 %12, ptr %5, align 4
  %13 = getelementptr inbounds nuw i8, ptr %8, i64 108
  %14 = load i32, ptr %13, align 4
  store i32 %14, ptr %2, align 4
  %15 = getelementptr inbounds nuw i8, ptr %8, i64 112
  %16 = load i32, ptr %15, align 8
  store i32 %16, ptr %4, align 4
  ret i1 true
}